target datalayout = "e-m:e-p270:32:32-p271:32:32-p272:64:64-i64:64-i128:128-f80:128-n8:16:32:64-S128"
target triple = "x86_64-pc-linux-gnu"

%struct._prefix_stats = type { ptr, i64, i64, i64, i64, i64, ptr }

@.str.62 = private unnamed_addr constant [10 x i8] c"testapp.c\00", align 1
@.str.69 = private unnamed_addr constant [4 x i8] c"abc\00", align 1
@.str.70 = private unnamed_addr constant [13 x i8] c"pfs1 == NULL\00", align 1
@__PRETTY_FUNCTION__.test_stats_prefix_find = private unnamed_addr constant [46 x i8] c"enum test_return test_stats_prefix_find(void)\00", align 1
@.str.71 = private unnamed_addr constant [5 x i8] c"abc|\00", align 1
@.str.72 = private unnamed_addr constant [5 x i8] c"abc:\00", align 1
@.str.73 = private unnamed_addr constant [13 x i8] c"pfs1 != NULL\00", align 1
@.str.74 = private unnamed_addr constant [79 x i8] c"0ULL == (pfs1->num_gets + pfs1->num_sets + pfs1->num_deletes + pfs1->num_hits)\00", align 1
@.str.75 = private unnamed_addr constant [13 x i8] c"pfs1 == pfs2\00", align 1
@.str.76 = private unnamed_addr constant [6 x i8] c"abc:d\00", align 1
@.str.77 = private unnamed_addr constant [8 x i8] c"xyz123:\00", align 1
@.str.78 = private unnamed_addr constant [13 x i8] c"pfs1 != pfs2\00", align 1
@.str.79 = private unnamed_addr constant [4 x i8] c"ab:\00", align 1

; Function Attrs: nounwind uwtable
define internal i32 @test_stats_prefix_find() #0 {
  %1 = alloca ptr, align 8
  %2 = alloca ptr, align 8
  call void @llvm.lifetime.start.p0(i64 8, ptr %1) #12
  call void @llvm.lifetime.start.p0(i64 8, ptr %2) #12
  call void @stats_prefix_clear()
  %3 = call ptr @stats_prefix_find(ptr noundef @.str.69, i64 noundef 3)
  store ptr %3, ptr %1, align 8, !tbaa !24
  %4 = load ptr, ptr %1, align 8, !tbaa !24
  %5 = icmp eq ptr %4, null
  br i1 %5, label %6, label %7

6:                                                ; preds = %0
  br label %8

7:                                                ; preds = %0
  call void @__assert_fail(ptr noundef @.str.70, ptr noundef @.str.62, i32 noundef 230, ptr noundef @__PRETTY_FUNCTION__.test_stats_prefix_find) #13
  unreachable

8:                                                ; preds = %6
  %9 = call ptr @stats_prefix_find(ptr noundef @.str.71, i64 noundef 4)
  store ptr %9, ptr %1, align 8, !tbaa !24
  %10 = load ptr, ptr %1, align 8, !tbaa !24
  %11 = icmp eq ptr %10, null
  br i1 %11, label %12, label %13

12:                                               ; preds = %8
  br label %14

13:                                               ; preds = %8
  call void @__assert_fail(ptr noundef @.str.70, ptr noundef @.str.62, i32 noundef 232, ptr noundef @__PRETTY_FUNCTION__.test_stats_prefix_find) #13
  unreachable

14:                                               ; preds = %12
  %15 = call ptr @stats_prefix_find(ptr noundef @.str.72, i64 noundef 4)
  store ptr %15, ptr %1, align 8, !tbaa !24
  %16 = load ptr, ptr %1, align 8, !tbaa !24
  %17 = icmp ne ptr %16, null
  br i1 %17, label %18, label %19

18:                                               ; preds = %14
  br label %20

19:                                               ; preds = %14
  call void @__assert_fail(ptr noundef @.str.73, ptr noundef @.str.62, i32 noundef 235, ptr noundef @__PRETTY_FUNCTION__.test_stats_prefix_find) #13
  unreachable

20:                                               ; preds = %18
  %21 = load ptr, ptr %1, align 8, !tbaa !24
  %22 = getelementptr inbounds nuw %struct._prefix_stats, ptr %21, i32 0, i32 2
  %23 = load i64, ptr %22, align 8, !tbaa !26
  %24 = load ptr, ptr %1, align 8, !tbaa !24
  %25 = getelementptr inbounds nuw %struct._prefix_stats, ptr %24, i32 0, i32 3
  %26 = load i64, ptr %25, align 8, !tbaa !28
  %27 = add i64 %23, %26
  %28 = load ptr, ptr %1, align 8, !tbaa !24
  %29 = getelementptr inbounds nuw %struct._prefix_stats, ptr %28, i32 0, i32 4
  %30 = load i64, ptr %29, align 8, !tbaa !29
  %31 = add i64 %27, %30
  %32 = load ptr, ptr %1, align 8, !tbaa !24
  %33 = getelementptr inbounds nuw %struct._prefix_stats, ptr %32, i32 0, i32 5
  %34 = load i64, ptr %33, align 8, !tbaa !30
  %35 = add i64 %31, %34
  %36 = icmp eq i64 0, %35
  br i1 %36, label %37, label %38

37:                                               ; preds = %20
  br label %39

38:                                               ; preds = %20
  call void @__assert_fail(ptr noundef @.str.74, ptr noundef @.str.62, i32 noundef 236, ptr noundef @__PRETTY_FUNCTION__.test_stats_prefix_find) #13
  unreachable

39:                                               ; preds = %37
  %40 = call ptr @stats_prefix_find(ptr noundef @.str.72, i64 noundef 4)
  store ptr %40, ptr %2, align 8, !tbaa !24
  %41 = load ptr, ptr %1, align 8, !tbaa !24
  %42 = load ptr, ptr %2, align 8, !tbaa !24
  %43 = icmp eq ptr %41, %42
  br i1 %43, label %44, label %45

44:                                               ; preds = %39
  br label %46

45:                                               ; preds = %39
  call void @__assert_fail(ptr noundef @.str.75, ptr noundef @.str.62, i32 noundef 238, ptr noundef @__PRETTY_FUNCTION__.test_stats_prefix_find) #13
  unreachable

46:                                               ; preds = %44
  %47 = call ptr @stats_prefix_find(ptr noundef @.str.76, i64 noundef 5)
  store ptr %47, ptr %2, align 8, !tbaa !24
  %48 = load ptr, ptr %1, align 8, !tbaa !24
  %49 = load ptr, ptr %2, align 8, !tbaa !24
  %50 = icmp eq ptr %48, %49
  br i1 %50, label %51, label %52

51:                                               ; preds = %46
  br label %53

52:                                               ; preds = %46
  call void @__assert_fail(ptr noundef @.str.75, ptr noundef @.str.62, i32 noundef 240, ptr noundef @__PRETTY_FUNCTION__.test_stats_prefix_find) #13
  unreachable

53:                                               ; preds = %51
  %54 = call ptr @stats_prefix_find(ptr noundef @.str.77, i64 noundef 6)
  store ptr %54, ptr %2, align 8, !tbaa !24
  %55 = load ptr, ptr %1, align 8, !tbaa !24
  %56 = load ptr, ptr %2, align 8, !tbaa !24
  %57 = icmp ne ptr %55, %56
  br i1 %57, label %58, label %59

58:                                               ; preds = %53
  br label %60

59:                                               ; preds = %53
  call void @__assert_fail(ptr noundef @.str.78, ptr noundef @.str.62, i32 noundef 242, ptr noundef @__PRETTY_FUNCTION__.test_stats_prefix_find) #13
  unreachable

60:                                               ; preds = %58
  %61 = call ptr @stats_prefix_find(ptr noundef @.str.79, i64 noundef 3)
  store ptr %61, ptr %2, align 8, !tbaa !24
  %62 = load ptr, ptr %1, align 8, !tbaa !24
  %63 = load ptr, ptr %2, align 8, !tbaa !24
  %64 = icmp ne ptr %62, %63
  br i1 %64, label %65, label %66

65:                                               ; preds = %60
  br label %67

66:                                               ; preds = %60
  call void @__assert_fail(ptr noundef @.str.78, ptr noundef @.str.62, i32 noundef 244, ptr noundef @__PRETTY_FUNCTION__.test_stats_prefix_find) #13
  unreachable

67:                                               ; preds = %65
  call void @llvm.lifetime.end.p0(i64 8, ptr %2) #12
  call void @llvm.lifetime.end.p0(i64 8, ptr %1) #12
  ret i32 1
}