; Function Attrs: nounwind uwtable
define internal noundef i32 @test_stats_prefix_find() #0 {
  tail call void @stats_prefix_clear() #21
  %1 = tail call ptr @stats_prefix_find(ptr noundef nonnull @.str.69, i64 noundef 3) #21
  %2 = icmp eq ptr %1, null
  br i1 %2, label %4, label %3

3:                                                ; preds = %0
  tail call void @__assert_fail(ptr noundef nonnull @.str.70, ptr noundef nonnull @.str.62, i32 noundef 230, ptr noundef nonnull @__PRETTY_FUNCTION__.test_stats_prefix_find) #22
  unreachable

4:                                                ; preds = %0
  %5 = tail call ptr @stats_prefix_find(ptr noundef nonnull @.str.71, i64 noundef 4) #21
  %6 = icmp eq ptr %5, null
  br i1 %6, label %8, label %7

7:                                                ; preds = %4
  tail call void @__assert_fail(ptr noundef nonnull @.str.70, ptr noundef nonnull @.str.62, i32 noundef 232, ptr noundef nonnull @__PRETTY_FUNCTION__.test_stats_prefix_find) #22
  unreachable

8:                                                ; preds = %4
  %9 = tail call ptr @stats_prefix_find(ptr noundef nonnull @.str.72, i64 noundef 4) #21
  %.not = icmp eq ptr %9, null
  br i1 %.not, label %10, label %11

10:                                               ; preds = %8
  tail call void @__assert_fail(ptr noundef nonnull @.str.73, ptr noundef nonnull @.str.62, i32 noundef 235, ptr noundef nonnull @__PRETTY_FUNCTION__.test_stats_prefix_find) #22
  unreachable

11:                                               ; preds = %8
  %12 = getelementptr inbounds nuw i8, ptr %9, i64 16
  %13 = load i64, ptr %12, align 8, !tbaa !21
  %14 = getelementptr inbounds nuw i8, ptr %9, i64 24
  %15 = load i64, ptr %14, align 8, !tbaa !24
  %16 = add i64 %15, %13
  %17 = getelementptr inbounds nuw i8, ptr %9, i64 32
  %18 = load i64, ptr %17, align 8, !tbaa !25
  %19 = add i64 %16, %18
  %20 = getelementptr inbounds nuw i8, ptr %9, i64 40
  %21 = load i64, ptr %20, align 8, !tbaa !26
  %22 = sub i64 0, %21
  %23 = icmp eq i64 %19, %22
  br i1 %23, label %25, label %24

24:                                               ; preds = %11
  tail call void @__assert_fail(ptr noundef nonnull @.str.74, ptr noundef nonnull @.str.62, i32 noundef 236, ptr noundef nonnull @__PRETTY_FUNCTION__.test_stats_prefix_find) #22
  unreachable

25:                                               ; preds = %11
  %26 = tail call ptr @stats_prefix_find(ptr noundef nonnull @.str.72, i64 noundef 4) #21
  %27 = icmp eq ptr %9, %26
  br i1 %27, label %29, label %28

28:                                               ; preds = %25
  tail call void @__assert_fail(ptr noundef nonnull @.str.75, ptr noundef nonnull @.str.62, i32 noundef 238, ptr noundef nonnull @__PRETTY_FUNCTION__.test_stats_prefix_find) #22
  unreachable

29:                                               ; preds = %25
  %30 = tail call ptr @stats_prefix_find(ptr noundef nonnull @.str.76, i64 noundef 5) #21
  %31 = icmp eq ptr %9, %30
  br i1 %31, label %33, label %32

32:                                               ; preds = %29
  tail call void @__assert_fail(ptr noundef nonnull @.str.75, ptr noundef nonnull @.str.62, i32 noundef 240, ptr noundef nonnull @__PRETTY_FUNCTION__.test_stats_prefix_find) #22
  unreachable

33:                                               ; preds = %29
  %34 = tail call ptr @stats_prefix_find(ptr noundef nonnull @.str.77, i64 noundef 6) #21
  %.not15 = icmp eq ptr %9, %34
  br i1 %.not15, label %35, label %36

35:                                               ; preds = %33
  tail call void @__assert_fail(ptr noundef nonnull @.str.78, ptr noundef nonnull @.str.62, i32 noundef 242, ptr noundef nonnull @__PRETTY_FUNCTION__.test_stats_prefix_find) #22
  unreachable

36:                                               ; preds = %33
  %37 = tail call ptr @stats_prefix_find(ptr noundef nonnull @.str.79, i64 noundef 3) #21
  %.not16 = icmp eq ptr %9, %37
  br i1 %.not16, label %38, label %39

38:                                               ; preds = %36
  tail call void @__assert_fail(ptr noundef nonnull @.str.78, ptr noundef nonnull @.str.62, i32 noundef 244, ptr noundef nonnull @__PRETTY_FUNCTION__.test_stats_prefix_find) #22
  unreachable

39:                                               ; preds = %36
  ret i32 1
}